; Function Attrs: mustprogress nofree norecurse nosync nounwind willreturn memory(argmem: read) uwtable
define hidden noundef i32 @_ZNK15NativeMovRegMem12patch_offsetEv(ptr nocapture noundef nonnull readonly align 1 dereferenceable(1) %0) local_unnamed_addr #3 align 2 {
  %2 = load i8, ptr %0, align 1
  switch i8 %2, label %3 [
    i8 -59, label %_ZNK15NativeMovRegMem19instruction_addressEv.exit
    i8 -60, label %_ZNK15NativeMovRegMem17instruction_startEv.exit.thread5
    i8 98, label %_ZNK15NativeMovRegMem17instruction_startEv.exit.thread8
  ]

_ZNK15NativeMovRegMem17instruction_startEv.exit.thread5: ; preds = %1
  br label %_ZNK15NativeMovRegMem19instruction_addressEv.exit

_ZNK15NativeMovRegMem17instruction_startEv.exit.thread8: ; preds = %1
  br label %_ZNK15NativeMovRegMem19instruction_addressEv.exit

3:                                                ; preds = %1
  %4 = and i8 %2, -16
  %or.cond.i = icmp eq i8 %4, 64
  br i1 %or.cond.i, label %5, label %8

5:                                                ; preds = %3
  %6 = getelementptr inbounds i8, ptr %0, i64 1
  %7 = load i8, ptr %6, align 1
  br label %8

8:                                                ; preds = %5, %3
  %.040.i = phi i32 [ 1, %5 ], [ 0, %3 ]
  %.0.i = phi i8 [ %7, %5 ], [ %2, %3 ]
  %9 = icmp eq i8 %.0.i, -43
  br i1 %9, label %10, label %15

10:                                               ; preds = %8
  %11 = or disjoint i32 %.040.i, 2
  %12 = zext nneg i32 %11 to i64
  %13 = getelementptr inbounds i8, ptr %0, i64 %12
  %14 = load i8, ptr %13, align 1
  br label %15

15:                                               ; preds = %10, %8
  %.141.i = phi i32 [ %11, %10 ], [ %.040.i, %8 ]
  %.1.i = phi i8 [ %14, %10 ], [ %.0.i, %8 ]
  %16 = icmp eq i8 %.1.i, 51
  br i1 %16, label %17, label %22

17:                                               ; preds = %15
  %18 = add nuw nsw i32 %.141.i, 2
  %19 = zext nneg i32 %18 to i64
  %20 = getelementptr inbounds i8, ptr %0, i64 %19
  %21 = load i8, ptr %20, align 1
  br label %22

22:                                               ; preds = %17, %15
  %.242.i = phi i32 [ %18, %17 ], [ %.141.i, %15 ]
  %.2.i = phi i8 [ %21, %17 ], [ %.1.i, %15 ]
  %23 = icmp eq i8 %.2.i, 102
  br i1 %23, label %24, label %29

24:                                               ; preds = %22
  %25 = add nuw nsw i32 %.242.i, 1
  %26 = zext nneg i32 %25 to i64
  %27 = getelementptr inbounds i8, ptr %0, i64 %26
  %28 = load i8, ptr %27, align 1
  br label %29

29:                                               ; preds = %24, %22
  %.343.i = phi i32 [ %25, %24 ], [ %.242.i, %22 ]
  %.3.i = phi i8 [ %28, %24 ], [ %.2.i, %22 ]
  %30 = and i8 %.3.i, -2
  %or.cond5.i = icmp eq i8 %30, -14
  br i1 %or.cond5.i, label %31, label %36

31:                                               ; preds = %29
  %32 = add nuw nsw i32 %.343.i, 1
  %33 = zext nneg i32 %32 to i64
  %34 = getelementptr inbounds i8, ptr %0, i64 %33
  %35 = load i8, ptr %34, align 1
  br label %36

36:                                               ; preds = %31, %29
  %.444.i = phi i32 [ %32, %31 ], [ %.343.i, %29 ]
  %.4.i = phi i8 [ %35, %31 ], [ %.3.i, %29 ]
  %37 = icmp eq i8 %.4.i, -43
  br i1 %37, label %38, label %43

38:                                               ; preds = %36
  %39 = add nuw nsw i32 %.444.i, 2
  %40 = zext nneg i32 %39 to i64
  %41 = getelementptr inbounds i8, ptr %0, i64 %40
  %42 = load i8, ptr %41, align 1
  br label %43

43:                                               ; preds = %38, %36
  %.545.i = phi i32 [ %39, %38 ], [ %.444.i, %36 ]
  %.5.i = phi i8 [ %42, %38 ], [ %.4.i, %36 ]
  %44 = and i8 %.5.i, -16
  %or.cond8.i = icmp eq i8 %44, 64
  br i1 %or.cond8.i, label %45, label %_ZNK15NativeMovRegMem17instruction_startEv.exit

45:                                               ; preds = %43
  %46 = add nuw nsw i32 %.545.i, 1
  %47 = zext nneg i32 %46 to i64
  %48 = getelementptr inbounds i8, ptr %0, i64 %47
  %49 = load i8, ptr %48, align 1
  br label %_ZNK15NativeMovRegMem17instruction_startEv.exit

_ZNK15NativeMovRegMem17instruction_startEv.exit:  ; preds = %43, %45
  %.646.i = phi i32 [ %46, %45 ], [ %.545.i, %43 ]
  %.6.i = phi i8 [ %49, %45 ], [ %.5.i, %43 ]
  %50 = icmp eq i8 %.6.i, 15
  %51 = zext i1 %50 to i32
  %spec.select.i = add nuw nsw i32 %.646.i, %51
  %52 = add nuw nsw i32 %spec.select.i, 2
  switch i8 %2, label %55 [
    i8 -59, label %_ZNK15NativeMovRegMem19instruction_addressEv.exit
    i8 -60, label %53
    i8 98, label %54
  ]

53:                                               ; preds = %_ZNK15NativeMovRegMem17instruction_startEv.exit
  br label %_ZNK15NativeMovRegMem19instruction_addressEv.exit

54:                                               ; preds = %_ZNK15NativeMovRegMem17instruction_startEv.exit
  br label %_ZNK15NativeMovRegMem19instruction_addressEv.exit

55:                                               ; preds = %_ZNK15NativeMovRegMem17instruction_startEv.exit
  br i1 %or.cond.i, label %56, label %59

56:                                               ; preds = %55
  %57 = getelementptr inbounds i8, ptr %0, i64 1
  %58 = load i8, ptr %57, align 1
  br label %59

59:                                               ; preds = %56, %55
  %.040.i.i = phi i32 [ 1, %56 ], [ 0, %55 ]
  %.0.i.i = phi i8 [ %58, %56 ], [ %2, %55 ]
  %60 = icmp eq i8 %.0.i.i, -43
  br i1 %60, label %61, label %66

61:                                               ; preds = %59
  %62 = or disjoint i32 %.040.i.i, 2
  %63 = zext nneg i32 %62 to i64
  %64 = getelementptr inbounds i8, ptr %0, i64 %63
  %65 = load i8, ptr %64, align 1
  br label %66

66:                                               ; preds = %61, %59
  %.141.i.i = phi i32 [ %62, %61 ], [ %.040.i.i, %59 ]
  %.1.i.i = phi i8 [ %65, %61 ], [ %.0.i.i, %59 ]
  %67 = icmp eq i8 %.1.i.i, 51
  br i1 %67, label %68, label %73

68:                                               ; preds = %66
  %69 = add nuw nsw i32 %.141.i.i, 2
  %70 = zext nneg i32 %69 to i64
  %71 = getelementptr inbounds i8, ptr %0, i64 %70
  %72 = load i8, ptr %71, align 1
  br label %73

73:                                               ; preds = %68, %66
  %.242.i.i = phi i32 [ %69, %68 ], [ %.141.i.i, %66 ]
  %.2.i.i = phi i8 [ %72, %68 ], [ %.1.i.i, %66 ]
  %74 = icmp eq i8 %.2.i.i, 102
  br i1 %74, label %75, label %80

75:                                               ; preds = %73
  %76 = add nuw nsw i32 %.242.i.i, 1
  %77 = zext nneg i32 %76 to i64
  %78 = getelementptr inbounds i8, ptr %0, i64 %77
  %79 = load i8, ptr %78, align 1
  br label %80

80:                                               ; preds = %75, %73
  %.343.i.i = phi i32 [ %76, %75 ], [ %.242.i.i, %73 ]
  %.3.i.i = phi i8 [ %79, %75 ], [ %.2.i.i, %73 ]
  %81 = and i8 %.3.i.i, -2
  %or.cond5.i.i = icmp eq i8 %81, -14
  br i1 %or.cond5.i.i, label %82, label %87

82:                                               ; preds = %80
  %83 = add nuw nsw i32 %.343.i.i, 1
  %84 = zext nneg i32 %83 to i64
  %85 = getelementptr inbounds i8, ptr %0, i64 %84
  %86 = load i8, ptr %85, align 1
  br label %87

87:                                               ; preds = %82, %80
  %.444.i.i = phi i32 [ %83, %82 ], [ %.343.i.i, %80 ]
  %.4.i.i = phi i8 [ %86, %82 ], [ %.3.i.i, %80 ]
  %88 = icmp eq i8 %.4.i.i, -43
  br i1 %88, label %89, label %94

89:                                               ; preds = %87
  %90 = add nuw nsw i32 %.444.i.i, 2
  %91 = zext nneg i32 %90 to i64
  %92 = getelementptr inbounds i8, ptr %0, i64 %91
  %93 = load i8, ptr %92, align 1
  br label %94

94:                                               ; preds = %89, %87
  %.545.i.i = phi i32 [ %90, %89 ], [ %.444.i.i, %87 ]
  %.5.i.i = phi i8 [ %93, %89 ], [ %.4.i.i, %87 ]
  %95 = and i8 %.5.i.i, -16
  %or.cond8.i.i = icmp eq i8 %95, 64
  br i1 %or.cond8.i.i, label %96, label %101

96:                                               ; preds = %94
  %97 = add nuw nsw i32 %.545.i.i, 1
  %98 = zext nneg i32 %97 to i64
  %99 = getelementptr inbounds i8, ptr %0, i64 %98
  %100 = load i8, ptr %99, align 1
  br label %101

101:                                              ; preds = %96, %94
  %.646.i.i = phi i32 [ %97, %96 ], [ %.545.i.i, %94 ]
  %.6.i.i = phi i8 [ %100, %96 ], [ %.5.i.i, %94 ]
  %102 = icmp eq i8 %.6.i.i, 15
  %103 = zext i1 %102 to i32
  %spec.select.i.i = add nuw nsw i32 %.646.i.i, %103
  %104 = zext nneg i32 %spec.select.i.i to i64
  br label %_ZNK15NativeMovRegMem19instruction_addressEv.exit

_ZNK15NativeMovRegMem19instruction_addressEv.exit: ; preds = %1, %_ZNK15NativeMovRegMem17instruction_startEv.exit.thread8, %_ZNK15NativeMovRegMem17instruction_startEv.exit.thread5, %_ZNK15NativeMovRegMem17instruction_startEv.exit, %53, %54, %101
  %105 = phi i32 [ %52, %101 ], [ %52, %_ZNK15NativeMovRegMem17instruction_startEv.exit ], [ 5, %_ZNK15NativeMovRegMem17instruction_startEv.exit.thread5 ], [ %52, %53 ], [ 6, %_ZNK15NativeMovRegMem17instruction_startEv.exit.thread8 ], [ %52, %54 ], [ 4, %1 ]
  %.047.i4 = phi i32 [ %spec.select.i, %101 ], [ %spec.select.i, %_ZNK15NativeMovRegMem17instruction_startEv.exit ], [ 3, %_ZNK15NativeMovRegMem17instruction_startEv.exit.thread5 ], [ %spec.select.i, %53 ], [ 4, %_ZNK15NativeMovRegMem17instruction_startEv.exit.thread8 ], [ %spec.select.i, %54 ], [ 2, %1 ]
  %.047.i.i = phi i64 [ %104, %101 ], [ 2, %_ZNK15NativeMovRegMem17instruction_startEv.exit ], [ 3, %_ZNK15NativeMovRegMem17instruction_startEv.exit.thread5 ], [ 3, %53 ], [ 4, %_ZNK15NativeMovRegMem17instruction_startEv.exit.thread8 ], [ 4, %54 ], [ 2, %1 ]
  %106 = getelementptr inbounds i8, ptr %0, i64 %.047.i.i
  %107 = getelementptr inbounds i8, ptr %106, i64 1
  %108 = load i8, ptr %107, align 1
  %109 = and i8 %108, 7
  %110 = icmp eq i8 %109, 4
  %111 = add nuw nsw i32 %.047.i4, 3
  %spec.select = select i1 %110, i32 %111, i32 %105
  ret i32 %spec.select
}